; Function Attrs: mustprogress nounwind uwtable
define dso_local void @_ZNK4llvm3opt8OptTable11ParseOneArgERKNS0_7ArgListERjNS0_10VisibilityE(ptr dead_on_unwind noalias writable sret(%"class.std::unique_ptr") align 8 %0, ptr noundef nonnull align 8 dereferenceable(88) %1, ptr noundef nonnull align 8 dereferenceable(176) %2, ptr noundef nonnull align 4 dereferenceable(4) %3, i32 %4) local_unnamed_addr #1 align 2 {
  %6 = alloca %"class.std::function.37", align 8
  %7 = getelementptr inbounds nuw i8, ptr %6, i64 16
  %8 = getelementptr inbounds nuw i8, ptr %6, i64 24
  call void @llvm.memset.p0.i64(ptr noundef nonnull align 8 dereferenceable(32) %6, i8 0, i64 16, i1 false)
  store i32 %4, ptr %6, align 8
  store ptr @"_ZNSt17_Function_handlerIFbRKN4llvm3opt6OptionEEZNKS1_8OptTable11ParseOneArgERKNS1_7ArgListERjNS1_10VisibilityEE3$_0E9_M_invokeERKSt9_Any_dataS4_", ptr %8, align 8
  store ptr @"_ZNSt17_Function_handlerIFbRKN4llvm3opt6OptionEEZNKS1_8OptTable11ParseOneArgERKNS1_7ArgListERjNS1_10VisibilityEE3$_0E10_M_managerERSt9_Any_dataRKSE_St18_Manager_operation", ptr %7, align 8
  call void @_ZNK4llvm3opt8OptTable19internalParseOneArgERKNS0_7ArgListERjSt8functionIFbRKNS0_6OptionEEE(ptr dead_on_unwind writable sret(%"class.std::unique_ptr") align 8 %0, ptr noundef nonnull align 8 dereferenceable(88) %1, ptr noundef nonnull align 8 dereferenceable(176) %2, ptr noundef nonnull align 4 dereferenceable(4) %3, ptr noundef nonnull %6)
  %9 = load ptr, ptr %7, align 8
  %.not.i.i = icmp eq ptr %9, null
  br i1 %.not.i.i, label %_ZNSt8functionIFbRKN4llvm3opt6OptionEEED2Ev.exit, label %10

10:                                               ; preds = %5
  %11 = call noundef zeroext i1 %9(ptr noundef nonnull align 8 dereferenceable(32) %6, ptr noundef nonnull align 8 dereferenceable(32) %6, i32 noundef 3) #22
  br label %_ZNSt8functionIFbRKN4llvm3opt6OptionEEED2Ev.exit

_ZNSt8functionIFbRKN4llvm3opt6OptionEEED2Ev.exit: ; preds = %5, %10
  ret void
}